target datalayout = "e-m:e-p270:32:32-p271:32:32-p272:64:64-i64:64-i128:128-f80:128-n8:16:32:64-S128"
target triple = "x86_64-pc-linux-gnu"

; Function Attrs: mustprogress nounwind uwtable
define hidden noundef ptr @_ZN5boost3log11v2_mt_posix3aux14char_constantsIwE16trim_spaces_leftEPKwS6_(ptr noundef %0, ptr noundef %1) #6 align 2 {
  %3 = alloca ptr, align 8
  %4 = alloca ptr, align 8
  store ptr %0, ptr %3, align 8, !tbaa !3
  store ptr %1, ptr %4, align 8, !tbaa !3
  br label %5

5:                                                ; preds = %16, %2
  %6 = load ptr, ptr %3, align 8, !tbaa !3
  %7 = load ptr, ptr %4, align 8, !tbaa !3
  %8 = icmp ne ptr %6, %7
  br i1 %8, label %9, label %14

9:                                                ; preds = %5
  %10 = load ptr, ptr %3, align 8, !tbaa !3
  %11 = load i32, ptr %10, align 4, !tbaa !24
  %12 = call i32 @iswspace(i32 noundef %11) #5
  %13 = icmp ne i32 %12, 0
  br label %14

14:                                               ; preds = %9, %5
  %15 = phi i1 [ false, %5 ], [ %13, %9 ]
  br i1 %15, label %16, label %19

16:                                               ; preds = %14
  %17 = load ptr, ptr %3, align 8, !tbaa !3
  %18 = getelementptr inbounds nuw i32, ptr %17, i32 1
  store ptr %18, ptr %3, align 8, !tbaa !3
  br label %5, !llvm.loop !26

19:                                               ; preds = %14
  %20 = load ptr, ptr %3, align 8, !tbaa !3
  ret ptr %20
}