; Function Attrs: mustprogress nounwind uwtable
define hidden noundef ptr @_ZN5boost3log11v2_mt_posix3aux14char_constantsIwE16trim_spaces_leftEPKwS6_(ptr noundef readonly %0, ptr noundef readnone %1) local_unnamed_addr #7 align 2 {
  %.not6 = icmp eq ptr %0, %1
  br i1 %.not6, label %.critedge, label %.lr.ph

.lr.ph:                                           ; preds = %2, %5
  %.07 = phi ptr [ %6, %5 ], [ %0, %2 ]
  %3 = load i32, ptr %.07, align 4, !tbaa !19
  %4 = tail call i32 @iswspace(i32 noundef %3) #11
  %.not5 = icmp eq i32 %4, 0
  br i1 %.not5, label %.critedge, label %5

5:                                                ; preds = %.lr.ph
  %6 = getelementptr inbounds nuw i8, ptr %.07, i64 4
  %.not = icmp eq ptr %6, %1
  br i1 %.not, label %.critedge, label %.lr.ph, !llvm.loop !21

.critedge:                                        ; preds = %.lr.ph, %5, %2
  %.0.lcssa = phi ptr [ %0, %2 ], [ %6, %5 ], [ %.07, %.lr.ph ]
  ret ptr %.0.lcssa
}